target datalayout = "e-m:e-p270:32:32-p271:32:32-p272:64:64-i64:64-i128:128-f80:128-n8:16:32:64-S128"
target triple = "x86_64-pc-linux-gnu"

%struct.plugin_id_name = type { i32, ptr }

@plugin_ids = dso_local constant [2 x { i32, [4 x i8], ptr }] [{ i32, [4 x i8], ptr } { i32 102, [4 x i8] zeroinitializer, ptr @.str }, { i32, [4 x i8], ptr } { i32 109, [4 x i8] zeroinitializer, ptr @.str.1 }], align 16
@.str.3 = private unnamed_addr constant [30 x i8] c"%s: unknown select plugin: %s\00", align 1
@__func__.select_string_to_plugin_id = private unnamed_addr constant [27 x i8] c"select_string_to_plugin_id\00", align 1

; Function Attrs: nounwind uwtable
define dso_local i32 @select_string_to_plugin_id(ptr noundef %0) #0 {
  %2 = alloca i32, align 4
  %3 = alloca ptr, align 8
  %4 = alloca i32, align 4
  %5 = alloca i32, align 4
  store ptr %0, ptr %3, align 8
  call void @llvm.lifetime.start.p0(i64 4, ptr %4) #7
  store i32 0, ptr %4, align 4
  br label %6

6:                                                ; preds = %27, %1
  %7 = load i32, ptr %4, align 4
  %8 = sext i32 %7 to i64
  %9 = icmp ult i64 %8, 2
  br i1 %9, label %11, label %10

10:                                               ; preds = %6
  store i32 2, ptr %5, align 4
  br label %30

11:                                               ; preds = %6
  %12 = load ptr, ptr %3, align 8
  %13 = load i32, ptr %4, align 4
  %14 = sext i32 %13 to i64
  %15 = getelementptr inbounds [2 x %struct.plugin_id_name], ptr @plugin_ids, i64 0, i64 %14
  %16 = getelementptr inbounds nuw %struct.plugin_id_name, ptr %15, i32 0, i32 1
  %17 = load ptr, ptr %16, align 8
  %18 = call i32 @xstrcasecmp(ptr noundef %12, ptr noundef %17)
  %19 = icmp ne i32 %18, 0
  br i1 %19, label %20, label %26

20:                                               ; preds = %11
  %21 = load i32, ptr %4, align 4
  %22 = sext i32 %21 to i64
  %23 = getelementptr inbounds [2 x %struct.plugin_id_name], ptr @plugin_ids, i64 0, i64 %22
  %24 = getelementptr inbounds nuw %struct.plugin_id_name, ptr %23, i32 0, i32 0
  %25 = load i32, ptr %24, align 16
  store i32 %25, ptr %2, align 4
  store i32 1, ptr %5, align 4
  br label %30

26:                                               ; preds = %11
  br label %27

27:                                               ; preds = %26
  %28 = load i32, ptr %4, align 4
  %29 = add nsw i32 %28, 1
  store i32 %29, ptr %4, align 4
  br label %6, !llvm.loop !11

30:                                               ; preds = %20, %10
  call void @llvm.lifetime.end.p0(i64 4, ptr %4) #7
  %31 = load i32, ptr %5, align 4
  switch i32 %31, label %37 [
    i32 2, label %32
    i32 1, label %35
  ]

32:                                               ; preds = %30
  %33 = load ptr, ptr %3, align 8
  %34 = call i32 (ptr, ...) @error(ptr noundef @.str.3, ptr noundef @__func__.select_string_to_plugin_id, ptr noundef %33)
  store i32 0, ptr %2, align 4
  br label %35

35:                                               ; preds = %32, %30
  %36 = load i32, ptr %2, align 4
  ret i32 %36

37:                                               ; preds = %30
  unreachable
}