; Function Attrs: nounwind uwtable
define dso_local i32 @select_string_to_plugin_id(ptr noundef %0) local_unnamed_addr #0 {
  br label %3

2:                                                ; preds = %3
  br i1 %4, label %3, label %11, !llvm.loop !11

3:                                                ; preds = %1, %2
  %4 = phi i1 [ true, %1 ], [ false, %2 ]
  %indvars.iv = phi i64 [ 0, %1 ], [ 1, %2 ]
  %5 = getelementptr inbounds nuw [2 x %struct.plugin_id_name], ptr @plugin_ids, i64 0, i64 %indvars.iv
  %6 = getelementptr inbounds nuw i8, ptr %5, i64 8
  %7 = load ptr, ptr %6, align 8
  %8 = tail call i32 @xstrcasecmp(ptr noundef %0, ptr noundef %7) #15
  %.not = icmp eq i32 %8, 0
  br i1 %.not, label %2, label %9

9:                                                ; preds = %3
  %10 = load i32, ptr %5, align 16
  br label %13

11:                                               ; preds = %2
  %12 = tail call i32 (ptr, ...) @error(ptr noundef nonnull @.str.3, ptr noundef nonnull @__func__.select_string_to_plugin_id, ptr noundef %0) #15
  br label %13

13:                                               ; preds = %9, %11
  %.1 = phi i32 [ %10, %9 ], [ 0, %11 ]
  ret i32 %.1
}